target datalayout = "e-m:e-p270:32:32-p271:32:32-p272:64:64-i64:64-i128:128-f80:128-n8:16:32:64-S128"
target triple = "x86_64-pc-linux-gnu"

%"class.std::optional.129" = type { %"struct.std::_Optional_base.130" }
%"struct.std::_Optional_base.130" = type { %"struct.std::_Optional_payload.132" }
%"struct.std::_Optional_payload.132" = type { %"struct.std::_Optional_payload_base.base.134", [7 x i8] }
%"struct.std::_Optional_payload_base.base.134" = type <{ %"union.std::_Optional_payload_base<const Luau::TypePackVar *>::_Storage", i8 }>
%"union.std::_Optional_payload_base<const Luau::TypePackVar *>::_Storage" = type { ptr }
%"struct.Luau::GenericTypePackDefinition" = type { ptr, %"class.std::optional.129" }
%"struct.std::_Optional_payload_base.133" = type <{ %"union.std::_Optional_payload_base<const Luau::TypePackVar *>::_Storage", i8, [7 x i8] }>

; Function Attrs: mustprogress nounwind uwtable
define linkonce_odr dso_local noundef nonnull align 8 dereferenceable(8) ptr @_ZNKSt22_Optional_payload_baseIPKN4Luau11TypePackVarEE6_M_getEv(ptr noundef nonnull align 8 dereferenceable(9) %0) #2 comdat align 2 {
  %2 = alloca ptr, align 8
  store ptr %0, ptr %2, align 8, !tbaa !910
  %3 = load ptr, ptr %2, align 8
  %4 = getelementptr inbounds nuw %"struct.std::_Optional_payload_base.133", ptr %3, i32 0, i32 0
  ret ptr %4
}

; Function Attrs: mustprogress nounwind uwtable
define linkonce_odr dso_local noundef nonnull align 8 dereferenceable(8) ptr @_ZNKSt19_Optional_base_implIPKN4Luau11TypePackVarESt14_Optional_baseIS3_Lb1ELb1EEE6_M_getEv(ptr noundef nonnull align 1 dereferenceable(1) %0) #2 comdat align 2 {
  %2 = alloca ptr, align 8
  store ptr %0, ptr %2, align 8, !tbaa !915
  %3 = load ptr, ptr %2, align 8
  br label %4

4:                                                ; preds = %1
  br label %5

5:                                                ; preds = %4
  br label %6

6:                                                ; preds = %5
  %7 = getelementptr inbounds nuw %"struct.std::_Optional_base.130", ptr %3, i32 0, i32 0
  %8 = call noundef nonnull align 8 dereferenceable(8) ptr @_ZNKSt22_Optional_payload_baseIPKN4Luau11TypePackVarEE6_M_getEv(ptr noundef nonnull align 8 dereferenceable(9) %7) #20
  ret ptr %8
}

; Function Attrs: mustprogress nounwind uwtable
define linkonce_odr dso_local noundef zeroext i1 @_ZNKSt19_Optional_base_implIPKN4Luau11TypePackVarESt14_Optional_baseIS3_Lb1ELb1EEE13_M_is_engagedEv(ptr noundef nonnull align 1 dereferenceable(1) %0) #2 comdat align 2 {
  %2 = alloca ptr, align 8
  store ptr %0, ptr %2, align 8, !tbaa !915
  %3 = load ptr, ptr %2, align 8
  %4 = getelementptr inbounds nuw %"struct.std::_Optional_base.130", ptr %3, i32 0, i32 0
  %5 = getelementptr inbounds nuw %"struct.std::_Optional_payload_base.133", ptr %4, i32 0, i32 1
  %6 = load i8, ptr %5, align 8, !tbaa !912, !range !17, !noundef !18
  %7 = trunc i8 %6 to i1
  ret i1 %7
}

; Function Attrs: mustprogress nounwind uwtable
define linkonce_odr dso_local noundef nonnull align 8 dereferenceable(8) ptr @_ZNKRSt8optionalIPKN4Luau11TypePackVarEEdeEv(ptr noundef nonnull align 8 dereferenceable(16) %0) #2 comdat align 2 {
  %2 = alloca ptr, align 8
  store ptr %0, ptr %2, align 8, !tbaa !418
  %3 = load ptr, ptr %2, align 8
  %4 = call noundef nonnull align 8 dereferenceable(8) ptr @_ZNKSt19_Optional_base_implIPKN4Luau11TypePackVarESt14_Optional_baseIS3_Lb1ELb1EEE6_M_getEv(ptr noundef nonnull align 1 dereferenceable(1) %3) #20
  ret ptr %4
}

; Function Attrs: mustprogress nounwind uwtable
define linkonce_odr dso_local noundef zeroext i1 @_ZNKSt8optionalIPKN4Luau11TypePackVarEEcvbEv(ptr noundef nonnull align 8 dereferenceable(16) %0) #2 comdat align 2 {
  %2 = alloca ptr, align 8
  store ptr %0, ptr %2, align 8, !tbaa !418
  %3 = load ptr, ptr %2, align 8
  %4 = call noundef zeroext i1 @_ZNKSt19_Optional_base_implIPKN4Luau11TypePackVarESt14_Optional_baseIS3_Lb1ELb1EEE13_M_is_engagedEv(ptr noundef nonnull align 1 dereferenceable(1) %3) #20
  ret i1 %4
}

; Function Attrs: mustprogress nounwind uwtable
define linkonce_odr dso_local noundef zeroext i1 @_ZSteqIPKN4Luau11TypePackVarES3_ENSt9enable_ifIXsr14is_convertibleIDTeqclsr3stdE7declvalIRKT_EEclsr3stdE7declvalIRKT0_EEEbEE5valueEbE4typeERKSt8optionalIS5_ERKSE_IS8_E(ptr noundef nonnull align 8 dereferenceable(16) %0, ptr noundef nonnull align 8 dereferenceable(16) %1) #2 comdat {
  %3 = alloca ptr, align 8
  %4 = alloca ptr, align 8
  store ptr %0, ptr %3, align 8, !tbaa !418
  store ptr %1, ptr %4, align 8, !tbaa !418
  %5 = load ptr, ptr %3, align 8, !tbaa !418
  %6 = call noundef zeroext i1 @_ZNKSt8optionalIPKN4Luau11TypePackVarEEcvbEv(ptr noundef nonnull align 8 dereferenceable(16) %5) #20
  %7 = zext i1 %6 to i32
  %8 = load ptr, ptr %4, align 8, !tbaa !418
  %9 = call noundef zeroext i1 @_ZNKSt8optionalIPKN4Luau11TypePackVarEEcvbEv(ptr noundef nonnull align 8 dereferenceable(16) %8) #20
  %10 = zext i1 %9 to i32
  %11 = icmp eq i32 %7, %10
  br i1 %11, label %12, label %25

12:                                               ; preds = %2
  %13 = load ptr, ptr %3, align 8, !tbaa !418
  %14 = call noundef zeroext i1 @_ZNKSt8optionalIPKN4Luau11TypePackVarEEcvbEv(ptr noundef nonnull align 8 dereferenceable(16) %13) #20
  br i1 %14, label %15, label %23

15:                                               ; preds = %12
  %16 = load ptr, ptr %3, align 8, !tbaa !418
  %17 = call noundef nonnull align 8 dereferenceable(8) ptr @_ZNKRSt8optionalIPKN4Luau11TypePackVarEEdeEv(ptr noundef nonnull align 8 dereferenceable(16) %16) #20
  %18 = load ptr, ptr %17, align 8, !tbaa !228
  %19 = load ptr, ptr %4, align 8, !tbaa !418
  %20 = call noundef nonnull align 8 dereferenceable(8) ptr @_ZNKRSt8optionalIPKN4Luau11TypePackVarEEdeEv(ptr noundef nonnull align 8 dereferenceable(16) %19) #20
  %21 = load ptr, ptr %20, align 8, !tbaa !228
  %22 = icmp eq ptr %18, %21
  br label %23

23:                                               ; preds = %15, %12
  %24 = phi i1 [ true, %12 ], [ %22, %15 ]
  br label %25

25:                                               ; preds = %23, %2
  %26 = phi i1 [ false, %2 ], [ %24, %23 ]
  ret i1 %26
}

; Function Attrs: mustprogress uwtable
define dso_local noundef zeroext i1 @_ZNK4Luau25GenericTypePackDefinitioneqERKS0_(ptr noundef nonnull align 8 dereferenceable(24) %0, ptr noundef nonnull align 8 dereferenceable(24) %1) #3 align 2 {
  %3 = alloca ptr, align 8
  %4 = alloca ptr, align 8
  store ptr %0, ptr %3, align 8, !tbaa !490
  store ptr %1, ptr %4, align 8, !tbaa !490
  %5 = load ptr, ptr %3, align 8
  %6 = getelementptr inbounds nuw %"struct.Luau::GenericTypePackDefinition", ptr %5, i32 0, i32 0
  %7 = load ptr, ptr %6, align 8, !tbaa !491
  %8 = load ptr, ptr %4, align 8, !tbaa !490
  %9 = getelementptr inbounds nuw %"struct.Luau::GenericTypePackDefinition", ptr %8, i32 0, i32 0
  %10 = load ptr, ptr %9, align 8, !tbaa !491
  %11 = icmp eq ptr %7, %10
  br i1 %11, label %12, label %17

12:                                               ; preds = %2
  %13 = getelementptr inbounds nuw %"struct.Luau::GenericTypePackDefinition", ptr %5, i32 0, i32 1
  %14 = load ptr, ptr %4, align 8, !tbaa !490
  %15 = getelementptr inbounds nuw %"struct.Luau::GenericTypePackDefinition", ptr %14, i32 0, i32 1
  %16 = call noundef zeroext i1 @_ZSteqIPKN4Luau11TypePackVarES3_ENSt9enable_ifIXsr14is_convertibleIDTeqclsr3stdE7declvalIRKT_EEclsr3stdE7declvalIRKT0_EEEbEE5valueEbE4typeERKSt8optionalIS5_ERKSE_IS8_E(ptr noundef nonnull align 8 dereferenceable(16) %13, ptr noundef nonnull align 8 dereferenceable(16) %15)
  br label %17

17:                                               ; preds = %12, %2
  %18 = phi i1 [ false, %2 ], [ %16, %12 ]
  ret i1 %18
}